target datalayout = "e-m:e-p270:32:32-p271:32:32-p272:64:64-i64:64-i128:128-f80:128-n8:16:32:64-S128"
target triple = "x86_64-pc-linux-gnu"

%"class.pbrt::SampledSpectrum" = type { %"class.pstd::array" }
%"class.pstd::array" = type { [4 x float] }
%"class.pbrt::ConstantSpectrum" = type { float }

; Function Attrs: mustprogress nounwind uwtable
define linkonce_odr dso_local void @_ZN4pstd5arrayIfLi4EE4fillERKf(ptr noundef nonnull align 4 dereferenceable(16) %0, ptr noundef nonnull align 4 dereferenceable(4) %1) #3 comdat align 2 {
  %3 = alloca ptr, align 8
  %4 = alloca ptr, align 8
  %5 = alloca i32, align 4
  store ptr %0, ptr %3, align 8, !tbaa !113
  store ptr %1, ptr %4, align 8, !tbaa !48
  %6 = load ptr, ptr %3, align 8
  call void @llvm.lifetime.start.p0(i64 4, ptr %5) #12
  store i32 0, ptr %5, align 4, !tbaa !49
  br label %7

7:                                                ; preds = %18, %2
  %8 = load i32, ptr %5, align 4, !tbaa !49
  %9 = icmp slt i32 %8, 4
  br i1 %9, label %11, label %10

10:                                               ; preds = %7
  call void @llvm.lifetime.end.p0(i64 4, ptr %5) #12
  br label %21

11:                                               ; preds = %7
  %12 = load ptr, ptr %4, align 8, !tbaa !48
  %13 = load float, ptr %12, align 4, !tbaa !9
  %14 = getelementptr inbounds nuw %"class.pstd::array", ptr %6, i32 0, i32 0
  %15 = load i32, ptr %5, align 4, !tbaa !49
  %16 = sext i32 %15 to i64
  %17 = getelementptr inbounds [4 x float], ptr %14, i64 0, i64 %16
  store float %13, ptr %17, align 4, !tbaa !9
  br label %18

18:                                               ; preds = %11
  %19 = load i32, ptr %5, align 4, !tbaa !49
  %20 = add nsw i32 %19, 1
  store i32 %20, ptr %5, align 4, !tbaa !49
  br label %7, !llvm.loop !243

21:                                               ; preds = %10
  ret void
}

; Function Attrs: mustprogress nounwind uwtable
define linkonce_odr dso_local void @_ZN4pstd5arrayIfLi4EEC2Ev(ptr noundef nonnull align 4 dereferenceable(16) %0) unnamed_addr #3 comdat align 2 {
  %2 = alloca ptr, align 8
  store ptr %0, ptr %2, align 8, !tbaa !113
  %3 = load ptr, ptr %2, align 8
  %4 = getelementptr inbounds nuw %"class.pstd::array", ptr %3, i32 0, i32 0
  %5 = getelementptr inbounds float, ptr %4, i64 4
  br label %6

6:                                                ; preds = %6, %1
  %7 = phi ptr [ %4, %1 ], [ %8, %6 ]
  store float 0.000000e+00, ptr %7, align 4, !tbaa !9
  %8 = getelementptr inbounds float, ptr %7, i64 1
  %9 = icmp eq ptr %8, %5
  br i1 %9, label %10, label %6

10:                                               ; preds = %6
  ret void
}

; Function Attrs: mustprogress uwtable
define linkonce_odr dso_local void @_ZN4pbrt15SampledSpectrumC2Ef(ptr noundef nonnull align 4 dereferenceable(16) %0, float noundef %1) unnamed_addr #1 comdat align 2 {
  %3 = alloca ptr, align 8
  %4 = alloca float, align 4
  store ptr %0, ptr %3, align 8, !tbaa !109
  store float %1, ptr %4, align 4, !tbaa !9
  %5 = load ptr, ptr %3, align 8
  %6 = getelementptr inbounds nuw %"class.pbrt::SampledSpectrum", ptr %5, i32 0, i32 0
  call void @_ZN4pstd5arrayIfLi4EEC2Ev(ptr noundef nonnull align 4 dereferenceable(16) %6) #12
  %7 = getelementptr inbounds nuw %"class.pbrt::SampledSpectrum", ptr %5, i32 0, i32 0
  call void @_ZN4pstd5arrayIfLi4EE4fillERKf(ptr noundef nonnull align 4 dereferenceable(16) %7, ptr noundef nonnull align 4 dereferenceable(4) %4)
  ret void
}

; Function Attrs: mustprogress uwtable
define dso_local { <2 x float>, <2 x float> } @_ZNK4pbrt16ConstantSpectrum6SampleERKNS_18SampledWavelengthsE(ptr noundef nonnull align 4 dereferenceable(4) %0, ptr noundef nonnull align 4 dereferenceable(32) %1) #1 align 2 {
  %3 = alloca %"class.pbrt::SampledSpectrum", align 4
  %4 = alloca ptr, align 8
  %5 = alloca ptr, align 8
  store ptr %0, ptr %4, align 8, !tbaa !103
  store ptr %1, ptr %5, align 8, !tbaa !105
  %6 = load ptr, ptr %4, align 8
  %7 = getelementptr inbounds nuw %"class.pbrt::ConstantSpectrum", ptr %6, i32 0, i32 0
  %8 = load float, ptr %7, align 4, !tbaa !107
  call void @_ZN4pbrt15SampledSpectrumC2Ef(ptr noundef nonnull align 4 dereferenceable(16) %3, float noundef %8)
  %9 = getelementptr inbounds nuw %"class.pbrt::SampledSpectrum", ptr %3, i32 0, i32 0
  %10 = getelementptr inbounds nuw %"class.pstd::array", ptr %9, i32 0, i32 0
  %11 = load { <2 x float>, <2 x float> }, ptr %10, align 4
  ret { <2 x float>, <2 x float> } %11
}