; Function Attrs: mustprogress nofree norecurse nosync nounwind willreturn memory(argmem: read) uwtable
define dso_local { <2 x float>, <2 x float> } @_ZNK4pbrt16ConstantSpectrum6SampleERKNS_18SampledWavelengthsE(ptr noundef nonnull readonly align 4 captures(none) dereferenceable(4) %0, ptr noundef nonnull readnone align 4 captures(none) dereferenceable(32) %1) local_unnamed_addr #9 align 2 {
  %3 = alloca %"class.pbrt::SampledSpectrum", align 8
  %4 = load float, ptr %0, align 4, !tbaa !126
  call void @llvm.memset.p0.i64(ptr noundef nonnull align 8 dereferenceable(16) %3, i8 0, i64 16, i1 false), !tbaa !16
  br label %5

5:                                                ; preds = %5, %2
  %indvars.iv.i.i = phi i64 [ 0, %2 ], [ %indvars.iv.next.i.i, %5 ]
  %6 = getelementptr inbounds nuw [4 x float], ptr %3, i64 0, i64 %indvars.iv.i.i
  store float %4, ptr %6, align 4, !tbaa !16
  %indvars.iv.next.i.i = add nuw nsw i64 %indvars.iv.i.i, 1
  %exitcond.not.i.i = icmp eq i64 %indvars.iv.next.i.i, 4
  br i1 %exitcond.not.i.i, label %_ZN4pbrt15SampledSpectrumC2Ef.exit, label %5, !llvm.loop !128

_ZN4pbrt15SampledSpectrumC2Ef.exit:               ; preds = %5
  %.fca.0.load = load <2 x float>, ptr %3, align 8
  %.fca.0.insert = insertvalue { <2 x float>, <2 x float> } poison, <2 x float> %.fca.0.load, 0
  %.fca.1.gep = getelementptr inbounds nuw i8, ptr %3, i64 8
  %.fca.1.load = load <2 x float>, ptr %.fca.1.gep, align 8
  %.fca.1.insert = insertvalue { <2 x float>, <2 x float> } %.fca.0.insert, <2 x float> %.fca.1.load, 1
  ret { <2 x float>, <2 x float> } %.fca.1.insert
}